target datalayout = "e-m:e-p270:32:32-p271:32:32-p272:64:64-i64:64-i128:128-f80:128-n8:16:32:64-S128"
target triple = "x86_64-pc-linux-gnu"

%struct.avifROData = type { ptr, i64 }
%struct.avifROStream = type { ptr, i64, i64, ptr, ptr }
%struct.avifSampleTable = type { %struct.avifSampleTableChunkArray, %struct.avifSampleDescriptionArray, %struct.avifSampleTableSampleToChunkArray, %struct.avifSampleTableSampleSizeArray, %struct.avifSampleTableTimeToSampleArray, %struct.avifSyncSampleArray, i32 }
%struct.avifSampleTableChunkArray = type { ptr, i32, i32, i32 }
%struct.avifSampleDescriptionArray = type { ptr, i32, i32, i32 }
%struct.avifSampleTableSampleToChunkArray = type { ptr, i32, i32, i32 }
%struct.avifSampleTableSampleSizeArray = type { ptr, i32, i32, i32 }
%struct.avifSampleTableTimeToSampleArray = type { ptr, i32, i32, i32 }
%struct.avifSyncSampleArray = type { ptr, i32, i32, i32 }
%struct.avifSampleTableChunk = type { i64 }

@.str.140 = private unnamed_addr constant [10 x i8] c"Box[co64]\00", align 1
@.str.141 = private unnamed_addr constant [10 x i8] c"Box[stco]\00", align 1

; Function Attrs: nounwind uwtable
define internal i32 @avifParseChunkOffsetBox(ptr noundef %0, i32 noundef %1, ptr noundef %2, i64 noundef %3, ptr noundef %4) #0 {
  %6 = alloca i32, align 4
  %7 = alloca ptr, align 8
  %8 = alloca i32, align 4
  %9 = alloca ptr, align 8
  %10 = alloca i64, align 8
  %11 = alloca ptr, align 8
  %12 = alloca %struct.avifROStream, align 8
  %13 = alloca %struct.avifROData, align 8
  %14 = alloca i32, align 4
  %15 = alloca i32, align 4
  %16 = alloca i64, align 8
  %17 = alloca i32, align 4
  %18 = alloca ptr, align 8
  store ptr %0, ptr %7, align 8
  store i32 %1, ptr %8, align 4
  store ptr %2, ptr %9, align 8
  store i64 %3, ptr %10, align 8
  store ptr %4, ptr %11, align 8
  %19 = load ptr, ptr %9, align 8
  %20 = getelementptr inbounds nuw %struct.avifROData, ptr %13, i32 0, i32 0
  store ptr %19, ptr %20, align 8
  %21 = load i64, ptr %10, align 8
  %22 = getelementptr inbounds nuw %struct.avifROData, ptr %13, i32 0, i32 1
  store i64 %21, ptr %22, align 8
  %23 = load ptr, ptr %11, align 8
  %24 = load i32, ptr %8, align 4
  %25 = icmp ne i32 %24, 0
  %26 = select i1 %25, ptr @.str.140, ptr @.str.141
  call void @avifROStreamStart(ptr noundef %12, ptr noundef %13, ptr noundef %23, ptr noundef %26)
  br label %27

27:                                               ; preds = %5
  %28 = call i32 @avifROStreamReadAndEnforceVersion(ptr noundef %12, i8 noundef zeroext 0)
  %29 = icmp ne i32 %28, 0
  br i1 %29, label %31, label %30

30:                                               ; preds = %27
  store i32 9, ptr %6, align 4
  br label %79

31:                                               ; preds = %27
  br label %32

32:                                               ; preds = %31
  br label %33

33:                                               ; preds = %32
  %34 = call i32 @avifROStreamReadU32(ptr noundef %12, ptr noundef %14)
  %35 = icmp ne i32 %34, 0
  br i1 %35, label %37, label %36

36:                                               ; preds = %33
  store i32 9, ptr %6, align 4
  br label %79

37:                                               ; preds = %33
  br label %38

38:                                               ; preds = %37
  store i32 0, ptr %15, align 4
  br label %39

39:                                               ; preds = %75, %38
  %40 = load i32, ptr %15, align 4
  %41 = load i32, ptr %14, align 4
  %42 = icmp ult i32 %40, %41
  br i1 %42, label %43, label %78

43:                                               ; preds = %39
  %44 = load i32, ptr %8, align 4
  %45 = icmp ne i32 %44, 0
  br i1 %45, label %46, label %53

46:                                               ; preds = %43
  br label %47

47:                                               ; preds = %46
  %48 = call i32 @avifROStreamReadU64(ptr noundef %12, ptr noundef %16)
  %49 = icmp ne i32 %48, 0
  br i1 %49, label %51, label %50

50:                                               ; preds = %47
  store i32 9, ptr %6, align 4
  br label %79

51:                                               ; preds = %47
  br label %52

52:                                               ; preds = %51
  br label %62

53:                                               ; preds = %43
  br label %54

54:                                               ; preds = %53
  %55 = call i32 @avifROStreamReadU32(ptr noundef %12, ptr noundef %17)
  %56 = icmp ne i32 %55, 0
  br i1 %56, label %58, label %57

57:                                               ; preds = %54
  store i32 9, ptr %6, align 4
  br label %79

58:                                               ; preds = %54
  br label %59

59:                                               ; preds = %58
  %60 = load i32, ptr %17, align 4
  %61 = zext i32 %60 to i64
  store i64 %61, ptr %16, align 8
  br label %62

62:                                               ; preds = %59, %52
  %63 = load ptr, ptr %7, align 8
  %64 = getelementptr inbounds nuw %struct.avifSampleTable, ptr %63, i32 0, i32 0
  %65 = call ptr @avifArrayPush(ptr noundef %64)
  store ptr %65, ptr %18, align 8
  br label %66

66:                                               ; preds = %62
  %67 = load ptr, ptr %18, align 8
  %68 = icmp ne ptr %67, null
  br i1 %68, label %70, label %69

69:                                               ; preds = %66
  store i32 26, ptr %6, align 4
  br label %79

70:                                               ; preds = %66
  br label %71

71:                                               ; preds = %70
  %72 = load i64, ptr %16, align 8
  %73 = load ptr, ptr %18, align 8
  %74 = getelementptr inbounds nuw %struct.avifSampleTableChunk, ptr %73, i32 0, i32 0
  store i64 %72, ptr %74, align 8
  br label %75

75:                                               ; preds = %71
  %76 = load i32, ptr %15, align 4
  %77 = add i32 %76, 1
  store i32 %77, ptr %15, align 4
  br label %39, !llvm.loop !83

78:                                               ; preds = %39
  store i32 0, ptr %6, align 4
  br label %79

79:                                               ; preds = %78, %69, %57, %50, %36, %30
  %80 = load i32, ptr %6, align 4
  ret i32 %80
}