; Function Attrs: nounwind uwtable
define internal fastcc range(i32 0, 27) i32 @avifParseChunkOffsetBox(ptr noundef %0, i32 noundef range(i32 0, 2) %1, ptr noundef %2, i64 noundef %3, ptr noundef %4) unnamed_addr #0 {
  %6 = alloca %struct.avifROStream, align 8
  %7 = alloca %struct.avifROData, align 8
  %8 = alloca i32, align 4
  %9 = alloca i64, align 8
  %10 = alloca i32, align 4
  store ptr %2, ptr %7, align 8
  %11 = getelementptr inbounds nuw i8, ptr %7, i64 8
  store i64 %3, ptr %11, align 8
  %.not = icmp eq i32 %1, 0
  %12 = select i1 %.not, ptr @.str.141, ptr @.str.140
  call void @avifROStreamStart(ptr noundef nonnull %6, ptr noundef nonnull %7, ptr noundef %4, ptr noundef nonnull %12) #13
  %13 = call i32 @avifROStreamReadAndEnforceVersion(ptr noundef nonnull %6, i8 noundef zeroext 0) #13
  %.not12 = icmp eq i32 %13, 0
  br i1 %.not12, label %.loopexit, label %14

14:                                               ; preds = %5
  %15 = call i32 @avifROStreamReadU32(ptr noundef nonnull %6, ptr noundef nonnull %8) #13
  %.not13 = icmp eq i32 %15, 0
  br i1 %.not13, label %.loopexit, label %.preheader

.preheader:                                       ; preds = %14
  %16 = load i32, ptr %8, align 4
  %.not26 = icmp eq i32 %16, 0
  br i1 %.not26, label %.loopexit, label %.lr.ph

.lr.ph:                                           ; preds = %.preheader
  br i1 %.not, label %.lr.ph.split.us, label %.lr.ph.split

.lr.ph.split.us:                                  ; preds = %.lr.ph, %21
  %.01017.us = phi i32 [ %23, %21 ], [ 0, %.lr.ph ]
  %17 = call i32 @avifROStreamReadU32(ptr noundef nonnull %6, ptr noundef nonnull %10) #13
  %.not14.us = icmp eq i32 %17, 0
  br i1 %.not14.us, label %.loopexit, label %18

18:                                               ; preds = %.lr.ph.split.us
  %19 = load i32, ptr %10, align 4
  %20 = call ptr @avifArrayPush(ptr noundef %0) #13
  %.not16.us = icmp eq ptr %20, null
  br i1 %.not16.us, label %.loopexit, label %21

21:                                               ; preds = %18
  %22 = zext i32 %19 to i64
  store i64 %22, ptr %20, align 8
  %23 = add nuw i32 %.01017.us, 1
  %24 = load i32, ptr %8, align 4
  %25 = icmp ult i32 %23, %24
  br i1 %25, label %.lr.ph.split.us, label %.loopexit, !llvm.loop !90

.lr.ph.split:                                     ; preds = %.lr.ph, %29
  %.01017 = phi i32 [ %31, %29 ], [ 0, %.lr.ph ]
  %26 = call i32 @avifROStreamReadU64(ptr noundef nonnull %6, ptr noundef nonnull %9) #13
  %.not15 = icmp eq i32 %26, 0
  br i1 %.not15, label %.loopexit, label %27

27:                                               ; preds = %.lr.ph.split
  %28 = call ptr @avifArrayPush(ptr noundef %0) #13
  %.not16 = icmp eq ptr %28, null
  br i1 %.not16, label %.loopexit, label %29

29:                                               ; preds = %27
  %30 = load i64, ptr %9, align 8
  store i64 %30, ptr %28, align 8
  %31 = add nuw i32 %.01017, 1
  %32 = load i32, ptr %8, align 4
  %33 = icmp ult i32 %31, %32
  br i1 %33, label %.lr.ph.split, label %.loopexit, !llvm.loop !90

.loopexit:                                        ; preds = %.lr.ph.split, %27, %29, %.lr.ph.split.us, %18, %21, %.preheader, %14, %5
  %.0 = phi i32 [ 9, %5 ], [ 9, %14 ], [ 0, %.preheader ], [ 9, %.lr.ph.split.us ], [ 26, %18 ], [ 0, %21 ], [ 9, %.lr.ph.split ], [ 26, %27 ], [ 0, %29 ]
  ret i32 %.0
}